target datalayout = "e-m:e-p270:32:32-p271:32:32-p272:64:64-i64:64-i128:128-f80:128-n8:16:32:64-S128"
target triple = "x86_64-pc-linux-gnu"

@.str.1 = private unnamed_addr constant [37 x i8] c"../openssl/test/helpers/ssltestlib.c\00", align 1
@.str.80 = private unnamed_addr constant [39 x i8] c"certbio = BIO_new_file(cert_file, \22r\22)\00", align 1
@.str.81 = private unnamed_addr constant [2 x i8] c"r\00", align 1
@.str.82 = private unnamed_addr constant [38 x i8] c"chaincert = X509_new_ex(libctx, NULL)\00", align 1
@.str.83 = private unnamed_addr constant [81 x i8] c"assertion failed: certlen * NUM_EXTRA_CERTS > (SSL3_RT_MAX_PLAIN_LENGTH * 4) / 3\00", align 1

; Function Attrs: nounwind uwtable
define dso_local i32 @ssl_ctx_add_large_cert_chain(ptr noundef %0, ptr noundef %1, ptr noundef %2) #0 {
  %4 = alloca ptr, align 8
  %5 = alloca ptr, align 8
  %6 = alloca ptr, align 8
  %7 = alloca ptr, align 8
  %8 = alloca ptr, align 8
  %9 = alloca i32, align 4
  %10 = alloca i32, align 4
  %11 = alloca i32, align 4
  store ptr %0, ptr %4, align 8, !tbaa !55
  store ptr %1, ptr %5, align 8, !tbaa !61
  store ptr %2, ptr %6, align 8, !tbaa !11
  call void @llvm.lifetime.start.p0(i64 8, ptr %7) #10
  store ptr null, ptr %7, align 8, !tbaa !9
  call void @llvm.lifetime.start.p0(i64 8, ptr %8) #10
  store ptr null, ptr %8, align 8, !tbaa !91
  call void @llvm.lifetime.start.p0(i64 4, ptr %9) #10
  call void @llvm.lifetime.start.p0(i64 4, ptr %10) #10
  store i32 0, ptr %10, align 4, !tbaa !13
  call void @llvm.lifetime.start.p0(i64 4, ptr %11) #10
  %12 = load ptr, ptr %6, align 8, !tbaa !11
  %13 = call ptr @BIO_new_file(ptr noundef %12, ptr noundef @.str.81)
  store ptr %13, ptr %7, align 8, !tbaa !9
  %14 = call i32 @test_ptr(ptr noundef @.str.1, i32 noundef 1428, ptr noundef @.str.80, ptr noundef %13)
  %15 = icmp ne i32 %14, 0
  br i1 %15, label %17, label %16

16:                                               ; preds = %3
  br label %60

17:                                               ; preds = %3
  %18 = load ptr, ptr %4, align 8, !tbaa !55
  %19 = call ptr @X509_new_ex(ptr noundef %18, ptr noundef null)
  store ptr %19, ptr %8, align 8, !tbaa !91
  %20 = call i32 @test_ptr(ptr noundef @.str.1, i32 noundef 1431, ptr noundef @.str.82, ptr noundef %19)
  %21 = icmp ne i32 %20, 0
  br i1 %21, label %23, label %22

22:                                               ; preds = %17
  br label %60

23:                                               ; preds = %17
  %24 = load ptr, ptr %7, align 8, !tbaa !9
  %25 = call ptr @PEM_read_bio_X509(ptr noundef %24, ptr noundef %8, ptr noundef null, ptr noundef null)
  %26 = icmp eq ptr %25, null
  br i1 %26, label %27, label %28

27:                                               ; preds = %23
  br label %60

28:                                               ; preds = %23
  %29 = load ptr, ptr %7, align 8, !tbaa !9
  %30 = call i32 @BIO_free(ptr noundef %29)
  store ptr null, ptr %7, align 8, !tbaa !9
  %31 = load ptr, ptr %8, align 8, !tbaa !91
  %32 = call i32 @i2d_X509(ptr noundef %31, ptr noundef null)
  store i32 %32, ptr %9, align 4, !tbaa !13
  %33 = load i32, ptr %9, align 4, !tbaa !13
  %34 = mul nsw i32 %33, 40
  %35 = icmp sgt i32 %34, 21845
  br i1 %35, label %36, label %37

36:                                               ; preds = %28
  br label %39

37:                                               ; preds = %28
  call void @OPENSSL_die(ptr noundef @.str.83, ptr noundef @.str.1, i32 noundef 1448) #13
  unreachable

38:                                               ; No predecessors!
  br label %39

39:                                               ; preds = %38, %36
  store i32 0, ptr %11, align 4, !tbaa !13
  br label %40

40:                                               ; preds = %56, %39
  %41 = load i32, ptr %11, align 4, !tbaa !13
  %42 = icmp slt i32 %41, 40
  br i1 %42, label %43, label %59

43:                                               ; preds = %40
  %44 = load ptr, ptr %8, align 8, !tbaa !91
  %45 = call i32 @X509_up_ref(ptr noundef %44)
  %46 = icmp ne i32 %45, 0
  br i1 %46, label %48, label %47

47:                                               ; preds = %43
  br label %60

48:                                               ; preds = %43
  %49 = load ptr, ptr %5, align 8, !tbaa !61
  %50 = load ptr, ptr %8, align 8, !tbaa !91
  %51 = call i64 @SSL_CTX_ctrl(ptr noundef %49, i32 noundef 14, i64 noundef 0, ptr noundef %50)
  %52 = icmp ne i64 %51, 0
  br i1 %52, label %55, label %53

53:                                               ; preds = %48
  %54 = load ptr, ptr %8, align 8, !tbaa !91
  call void @X509_free(ptr noundef %54)
  br label %60

55:                                               ; preds = %48
  br label %56

56:                                               ; preds = %55
  %57 = load i32, ptr %11, align 4, !tbaa !13
  %58 = add nsw i32 %57, 1
  store i32 %58, ptr %11, align 4, !tbaa !13
  br label %40, !llvm.loop !93

59:                                               ; preds = %40
  store i32 1, ptr %10, align 4, !tbaa !13
  br label %60

60:                                               ; preds = %59, %53, %47, %27, %22, %16
  %61 = load ptr, ptr %7, align 8, !tbaa !9
  %62 = call i32 @BIO_free(ptr noundef %61)
  %63 = load ptr, ptr %8, align 8, !tbaa !91
  call void @X509_free(ptr noundef %63)
  %64 = load i32, ptr %10, align 4, !tbaa !13
  call void @llvm.lifetime.end.p0(i64 4, ptr %11) #10
  call void @llvm.lifetime.end.p0(i64 4, ptr %10) #10
  call void @llvm.lifetime.end.p0(i64 4, ptr %9) #10
  call void @llvm.lifetime.end.p0(i64 8, ptr %8) #10
  call void @llvm.lifetime.end.p0(i64 8, ptr %7) #10
  ret i32 %64
}