; Function Attrs: nounwind uwtable
define dso_local range(i32 0, 2) i32 @ssl_ctx_add_large_cert_chain(ptr noundef %0, ptr noundef %1, ptr noundef %2) local_unnamed_addr #0 {
  %4 = alloca ptr, align 8
  call void @llvm.lifetime.start.p0(i64 8, ptr nonnull %4) #14
  store ptr null, ptr %4, align 8, !tbaa !67
  %5 = tail call ptr @BIO_new_file(ptr noundef %2, ptr noundef nonnull @.str.81) #14
  %6 = tail call i32 @test_ptr(ptr noundef nonnull @.str.1, i32 noundef 1428, ptr noundef nonnull @.str.80, ptr noundef %5) #14
  %.not = icmp eq i32 %6, 0
  br i1 %.not, label %.loopexit, label %7

7:                                                ; preds = %3
  %8 = tail call ptr @X509_new_ex(ptr noundef %0, ptr noundef null) #14
  store ptr %8, ptr %4, align 8, !tbaa !67
  %9 = tail call i32 @test_ptr(ptr noundef nonnull @.str.1, i32 noundef 1431, ptr noundef nonnull @.str.82, ptr noundef %8) #14
  %.not11 = icmp eq i32 %9, 0
  br i1 %.not11, label %.loopexit, label %10

10:                                               ; preds = %7
  %11 = call ptr @PEM_read_bio_X509(ptr noundef %5, ptr noundef nonnull %4, ptr noundef null, ptr noundef null) #14
  %12 = icmp eq ptr %11, null
  br i1 %12, label %.loopexit, label %13

13:                                               ; preds = %10
  %14 = call i32 @BIO_free(ptr noundef %5) #14
  %15 = load ptr, ptr %4, align 8, !tbaa !67
  %16 = call i32 @i2d_X509(ptr noundef %15, ptr noundef null) #14
  %17 = icmp sgt i32 %16, 546
  br i1 %17, label %.preheader, label %18

18:                                               ; preds = %13
  call void @OPENSSL_die(ptr noundef nonnull @.str.83, ptr noundef nonnull @.str.1, i32 noundef 1448) #17
  unreachable

19:                                               ; preds = %23
  %20 = add nuw nsw i32 %.014, 1
  %exitcond.not = icmp eq i32 %20, 40
  br i1 %exitcond.not, label %.loopexit, label %.preheader, !llvm.loop !69

.preheader:                                       ; preds = %13, %19
  %.014 = phi i32 [ %20, %19 ], [ 0, %13 ]
  %21 = load ptr, ptr %4, align 8, !tbaa !67
  %22 = call i32 @X509_up_ref(ptr noundef %21) #14
  %.not12 = icmp eq i32 %22, 0
  br i1 %.not12, label %.loopexit, label %23

23:                                               ; preds = %.preheader
  %24 = load ptr, ptr %4, align 8, !tbaa !67
  %25 = call i64 @SSL_CTX_ctrl(ptr noundef %1, i32 noundef 14, i64 noundef 0, ptr noundef %24) #14
  %.not13 = icmp eq i64 %25, 0
  br i1 %.not13, label %26, label %19

26:                                               ; preds = %23
  %27 = load ptr, ptr %4, align 8, !tbaa !67
  call void @X509_free(ptr noundef %27) #14
  br label %.loopexit

.loopexit:                                        ; preds = %19, %.preheader, %10, %7, %3, %26
  %.010 = phi ptr [ %5, %10 ], [ null, %26 ], [ %5, %7 ], [ %5, %3 ], [ null, %.preheader ], [ null, %19 ]
  %.09 = phi i32 [ 0, %10 ], [ 0, %26 ], [ 0, %7 ], [ 0, %3 ], [ 1, %19 ], [ 0, %.preheader ]
  %28 = call i32 @BIO_free(ptr noundef %.010) #14
  %29 = load ptr, ptr %4, align 8, !tbaa !67
  call void @X509_free(ptr noundef %29) #14
  call void @llvm.lifetime.end.p0(i64 8, ptr nonnull %4) #14
  ret i32 %.09
}